; Function Attrs: mustprogress nofree norecurse nosync nounwind willreturn memory(none) uwtable
define internal range(i32 -260013952, 15728640) i32 @conv_18030_to_utf8(i32 noundef %0) #0 {
  %2 = add i32 %0, 2127506640
  %or.cond = icmp ult i32 %2, 381442
  br i1 %or.cond, label %3, label %46

3:                                                ; preds = %1
  %4 = lshr i32 %0, 16
  %5 = and i32 %4, 55
  %6 = lshr i32 %0, 8
  %7 = and i32 %6, 255
  %8 = and i32 %0, 255
  %9 = mul nuw nsw i32 %5, 1260
  %10 = mul nuw nsw i32 %7, 10
  %11 = add nuw nsw i32 %8, -61532
  %12 = add nsw i32 %11, %9
  %13 = add nsw i32 %12, %10
  %14 = icmp ult i32 %13, 128
  br i1 %14, label %unicode_to_utf8word.exit, label %15

15:                                               ; preds = %3
  %16 = icmp ult i32 %13, 2048
  br i1 %16, label %17, label %23

17:                                               ; preds = %15
  %18 = shl nuw nsw i32 %13, 2
  %19 = and i32 %18, 7936
  %20 = and i32 %13, 63
  %21 = or disjoint i32 %20, %19
  %22 = or disjoint i32 %21, 49280
  br label %unicode_to_utf8word.exit

23:                                               ; preds = %15
  %24 = icmp ult i32 %13, 65536
  br i1 %24, label %25, label %34

25:                                               ; preds = %23
  %26 = shl nuw nsw i32 %13, 4
  %27 = and i32 %26, 983040
  %28 = shl nuw nsw i32 %13, 2
  %29 = and i32 %28, 16128
  %30 = and i32 %13, 63
  %31 = or disjoint i32 %30, %29
  %32 = or disjoint i32 %31, %27
  %33 = or disjoint i32 %32, 14712960
  br label %unicode_to_utf8word.exit

34:                                               ; preds = %23
  %35 = shl nsw i32 %13, 6
  %36 = and i32 %35, 117440512
  %37 = shl nsw i32 %13, 4
  %38 = and i32 %37, 4128768
  %39 = shl nsw i32 %13, 2
  %40 = and i32 %39, 16128
  %41 = and i32 %13, 63
  %42 = or disjoint i32 %41, %38
  %43 = or disjoint i32 %42, %36
  %44 = or disjoint i32 %43, %40
  %45 = or disjoint i32 %44, -260013952
  br label %unicode_to_utf8word.exit

46:                                               ; preds = %1
  %47 = add i32 %0, 2127058887
  %or.cond3 = icmp ult i32 %47, 87296
  br i1 %or.cond3, label %48, label %92

48:                                               ; preds = %46
  %49 = lshr i32 %0, 16
  %50 = and i32 %49, 63
  %51 = lshr i32 %0, 8
  %52 = and i32 %51, 255
  %53 = and i32 %0, 255
  %54 = mul nuw nsw i32 %50, 1260
  %55 = mul nuw nsw i32 %52, 10
  %56 = add nuw nsw i32 %53, -61818
  %57 = add nsw i32 %56, %54
  %58 = add nsw i32 %57, %55
  %59 = add nsw i32 %58, 576
  %60 = icmp ult i32 %59, 128
  br i1 %60, label %unicode_to_utf8word.exit, label %61

61:                                               ; preds = %48
  %62 = icmp ult i32 %59, 2048
  br i1 %62, label %63, label %69

63:                                               ; preds = %61
  %64 = shl nuw nsw i32 %59, 2
  %65 = and i32 %64, 7936
  %66 = and i32 %58, 63
  %67 = or disjoint i32 %66, %65
  %68 = or disjoint i32 %67, 49280
  br label %unicode_to_utf8word.exit

69:                                               ; preds = %61
  %70 = icmp ult i32 %59, 65536
  br i1 %70, label %71, label %80

71:                                               ; preds = %69
  %72 = shl nuw nsw i32 %59, 4
  %73 = and i32 %72, 983040
  %74 = shl nuw nsw i32 %59, 2
  %75 = and i32 %74, 16128
  %76 = and i32 %58, 63
  %77 = or disjoint i32 %76, %75
  %78 = or disjoint i32 %77, %73
  %79 = or disjoint i32 %78, 14712960
  br label %unicode_to_utf8word.exit

80:                                               ; preds = %69
  %81 = shl nsw i32 %59, 6
  %82 = and i32 %81, 117440512
  %83 = shl nsw i32 %59, 4
  %84 = and i32 %83, 4128768
  %85 = shl nsw i32 %59, 2
  %86 = and i32 %85, 16128
  %87 = and i32 %58, 63
  %88 = or disjoint i32 %87, %84
  %89 = or disjoint i32 %88, %82
  %90 = or disjoint i32 %89, %86
  %91 = or disjoint i32 %90, -260013952
  br label %unicode_to_utf8word.exit

92:                                               ; preds = %46
  %93 = add i32 %0, 2110740941
  %or.cond5 = icmp ult i32 %93, 19461
  br i1 %or.cond5, label %94, label %109

94:                                               ; preds = %92
  %95 = lshr i32 %0, 8
  %96 = and i32 %95, 255
  %97 = and i32 %0, 255
  %98 = mul nuw nsw i32 %96, 10
  %99 = add nuw nsw i32 %97, 12140
  %100 = add nuw nsw i32 %99, %98
  %101 = shl nuw nsw i32 %100, 4
  %102 = and i32 %101, 458752
  %103 = shl nuw nsw i32 %100, 2
  %104 = and i32 %103, 16128
  %105 = and i32 %100, 63
  %106 = or disjoint i32 %105, %104
  %107 = or disjoint i32 %106, %102
  %108 = or disjoint i32 %107, 14712960
  br label %unicode_to_utf8word.exit

109:                                              ; preds = %92
  %110 = add i32 %0, 2110663624
  %or.cond7 = icmp ult i32 %110, 56059
  br i1 %or.cond7, label %111, label %130

111:                                              ; preds = %109
  %112 = lshr i32 %0, 16
  %113 = and i32 %112, 51
  %114 = lshr i32 %0, 8
  %115 = and i32 %114, 255
  %116 = and i32 %0, 255
  %117 = mul nuw nsw i32 %113, 1260
  %118 = mul nuw nsw i32 %115, 10
  %119 = add nuw nsw i32 %116, -48331
  %120 = add nsw i32 %119, %117
  %121 = add nuw nsw i32 %120, %118
  %122 = shl nuw nsw i32 %121, 4
  %123 = and i32 %122, 983040
  %124 = shl nuw nsw i32 %121, 2
  %125 = and i32 %124, 16128
  %126 = and i32 %121, 63
  %127 = or disjoint i32 %126, %125
  %128 = or disjoint i32 %127, %123
  %129 = or disjoint i32 %128, 14712960
  br label %unicode_to_utf8word.exit

130:                                              ; preds = %109
  %131 = add i32 %0, 2110600905
  %or.cond9 = icmp ult i32 %131, 12033
  br i1 %or.cond9, label %132, label %147

132:                                              ; preds = %130
  %133 = lshr i32 %0, 8
  %134 = and i32 %133, 255
  %135 = and i32 %0, 255
  %136 = mul nuw nsw i32 %134, 10
  %137 = add nuw nsw i32 %135, 14671
  %138 = add nuw nsw i32 %137, %136
  %139 = shl nuw nsw i32 %138, 4
  %140 = and i32 %139, 458752
  %141 = shl nuw nsw i32 %138, 2
  %142 = and i32 %141, 16128
  %143 = and i32 %138, 63
  %144 = or disjoint i32 %143, %142
  %145 = or disjoint i32 %144, %140
  %146 = or disjoint i32 %145, 14712960
  br label %unicode_to_utf8word.exit

147:                                              ; preds = %130
  %148 = add i32 %0, 2110545095
  %or.cond11 = icmp ult i32 %148, 9721
  br i1 %or.cond11, label %149, label %157

149:                                              ; preds = %147
  %150 = lshr i32 %0, 8
  %151 = and i32 %150, 255
  %152 = and i32 %0, 255
  %153 = mul nuw nsw i32 %151, 10
  %154 = add nuw nsw i32 %152, 15936
  %155 = add nuw nsw i32 %154, %153
  %156 = tail call fastcc i32 @unicode_to_utf8word(i32 noundef %155)
  br label %unicode_to_utf8word.exit

157:                                              ; preds = %147
  %158 = add i32 %0, 2110527432
  %or.cond13 = icmp ult i32 %158, 44545
  br i1 %or.cond13, label %159, label %171

159:                                              ; preds = %157
  %160 = lshr i32 %0, 16
  %161 = and i32 %160, 55
  %162 = lshr i32 %0, 8
  %163 = and i32 %162, 255
  %164 = and i32 %0, 255
  %165 = mul nuw nsw i32 %161, 1260
  %166 = mul nuw nsw i32 %163, 10
  %167 = add nuw nsw i32 %164, -48318
  %168 = add nsw i32 %167, %165
  %169 = add nuw nsw i32 %168, %166
  %170 = tail call fastcc i32 @unicode_to_utf8word(i32 noundef %169)
  br label %unicode_to_utf8word.exit

171:                                              ; preds = %157
  %172 = add i32 %0, 2110480079
  %or.cond15 = icmp ult i32 %172, 17923
  br i1 %or.cond15, label %173, label %181

173:                                              ; preds = %171
  %174 = lshr i32 %0, 8
  %175 = and i32 %174, 255
  %176 = and i32 %0, 255
  %177 = mul nuw nsw i32 %175, 10
  %178 = add nuw nsw i32 %176, 17213
  %179 = add nuw nsw i32 %178, %177
  %180 = tail call fastcc i32 @unicode_to_utf8word(i32 noundef %179)
  br label %unicode_to_utf8word.exit

181:                                              ; preds = %171
  %182 = add i32 %0, 2110419149
  %or.cond17 = icmp ult i32 %182, 16857094
  br i1 %or.cond17, label %183, label %198

183:                                              ; preds = %181
  %184 = lshr i32 %0, 24
  %185 = lshr i32 %0, 16
  %186 = and i32 %185, 255
  %187 = lshr i32 %0, 8
  %188 = and i32 %187, 255
  %189 = and i32 %0, 255
  %190 = mul nuw nsw i32 %184, 12600
  %191 = mul nuw nsw i32 %186, 1260
  %192 = mul nuw nsw i32 %188, 10
  %193 = add nuw nsw i32 %189, -1665391
  %194 = add nuw nsw i32 %193, %190
  %195 = add nsw i32 %194, %191
  %196 = add nsw i32 %195, %192
  %197 = tail call fastcc i32 @unicode_to_utf8word(i32 noundef %196)
  br label %unicode_to_utf8word.exit

198:                                              ; preds = %181
  %199 = add i32 %0, 2093559760
  %or.cond19 = icmp ult i32 %199, 16364805
  br i1 %or.cond19, label %200, label %215

200:                                              ; preds = %198
  %201 = lshr i32 %0, 24
  %202 = lshr i32 %0, 16
  %203 = and i32 %202, 255
  %204 = lshr i32 %0, 8
  %205 = and i32 %204, 255
  %206 = and i32 %0, 255
  %207 = mul nuw nsw i32 %201, 12600
  %208 = mul nuw nsw i32 %203, 1260
  %209 = mul nuw nsw i32 %205, 10
  %210 = add nuw nsw i32 %206, -1661275
  %211 = add nsw i32 %210, %207
  %212 = add nsw i32 %211, %208
  %213 = add nsw i32 %212, %209
  %214 = tail call fastcc i32 @unicode_to_utf8word(i32 noundef %213)
  br label %unicode_to_utf8word.exit

215:                                              ; preds = %198
  %216 = add i32 %0, 2077189064
  %or.cond21 = icmp ult i32 %216, 59648
  br i1 %or.cond21, label %217, label %229

217:                                              ; preds = %215
  %218 = lshr i32 %0, 16
  %219 = and i32 %218, 49
  %220 = lshr i32 %0, 8
  %221 = and i32 %220, 255
  %222 = and i32 %0, 255
  %223 = mul nuw nsw i32 %219, 1260
  %224 = mul nuw nsw i32 %221, 10
  %225 = add nuw nsw i32 %222, 1946
  %226 = add nuw nsw i32 %225, %223
  %227 = add nuw nsw i32 %226, %224
  %228 = tail call fastcc i32 @unicode_to_utf8word(i32 noundef %227)
  br label %unicode_to_utf8word.exit

229:                                              ; preds = %215
  %230 = add i32 %0, 2077121996
  %or.cond23 = icmp ult i32 %230, 518
  br i1 %or.cond23, label %231, label %239

231:                                              ; preds = %229
  %232 = lshr i32 %0, 8
  %233 = and i32 %232, 167
  %234 = and i32 %0, 255
  %235 = mul nuw nsw i32 %233, 10
  %236 = add nuw nsw i32 %234, 63838
  %237 = add nuw nsw i32 %236, %235
  %238 = tail call fastcc i32 @unicode_to_utf8word(i32 noundef %237)
  br label %unicode_to_utf8word.exit

239:                                              ; preds = %229
  %240 = add i32 %0, 1875869392
  %or.cond25 = icmp ult i32 %240, 1392646406
  br i1 %or.cond25, label %241, label %unicode_to_utf8word.exit

241:                                              ; preds = %239
  %242 = lshr i32 %0, 24
  %243 = lshr i32 %0, 16
  %244 = and i32 %243, 255
  %245 = lshr i32 %0, 8
  %246 = and i32 %245, 255
  %247 = and i32 %0, 255
  %248 = mul nuw nsw i32 %242, 12600
  %249 = mul nuw nsw i32 %244, 1260
  %250 = mul nuw nsw i32 %246, 10
  %251 = add nuw nsw i32 %247, -1810682
  %252 = add nsw i32 %251, %248
  %253 = add nuw nsw i32 %252, %249
  %254 = add nuw nsw i32 %253, %250
  %255 = tail call fastcc i32 @unicode_to_utf8word(i32 noundef %254)
  br label %unicode_to_utf8word.exit

unicode_to_utf8word.exit:                         ; preds = %132, %111, %94, %80, %71, %63, %48, %34, %25, %17, %3, %239, %241, %231, %217, %200, %183, %173, %159, %149
  %.0 = phi i32 [ %156, %149 ], [ %170, %159 ], [ %180, %173 ], [ %197, %183 ], [ %214, %200 ], [ %228, %217 ], [ %238, %231 ], [ %255, %241 ], [ 0, %239 ], [ %22, %17 ], [ %33, %25 ], [ %45, %34 ], [ %13, %3 ], [ %68, %63 ], [ %79, %71 ], [ %91, %80 ], [ %59, %48 ], [ %108, %94 ], [ %129, %111 ], [ %146, %132 ]
  ret i32 %.0
}